target datalayout = "e-m:e-p270:32:32-p271:32:32-p272:64:64-i64:64-i128:128-f80:128-n8:16:32:64-S128"
target triple = "x86_64-pc-linux-gnu"

%struct.expert_field = type { i32, i32 }

@hf_ip_opt_sid = internal global i32 0, align 4
@ett_ip_option_sid = internal global i32 0, align 4
@ei_ip_opt_deprecated = internal global %struct.expert_field zeroinitializer, align 4
@proto_ip_option_sid = internal global i32 0, align 4

; Function Attrs: null_pointer_is_valid sspstrong uwtable
define internal i32 @dissect_ipopt_sid(ptr noundef %0, ptr noundef %1, ptr noundef %2, ptr noundef %3) #1 {
  %5 = alloca ptr, align 8
  %6 = alloca ptr, align 8
  %7 = alloca ptr, align 8
  %8 = alloca ptr, align 8
  %9 = alloca ptr, align 8
  %10 = alloca ptr, align 8
  store ptr %0, ptr %5, align 8
  store ptr %1, ptr %6, align 8
  store ptr %2, ptr %7, align 8
  store ptr %3, ptr %8, align 8
  call void @llvm.lifetime.start.p0(i64 8, ptr %9) #12
  call void @llvm.lifetime.start.p0(i64 8, ptr %10) #12
  %11 = load ptr, ptr %7, align 8
  %12 = load ptr, ptr %6, align 8
  %13 = load ptr, ptr %5, align 8
  %14 = load i32, ptr @proto_ip_option_sid, align 4
  %15 = load i32, ptr @ett_ip_option_sid, align 4
  %16 = load ptr, ptr %5, align 8
  %17 = call i32 @tvb_reported_length(ptr noundef %16)
  %18 = call ptr @ip_fixed_option_header(ptr noundef %11, ptr noundef %12, ptr noundef %13, i32 noundef %14, i32 noundef %15, ptr noundef %10, i32 noundef 4, i32 noundef %17)
  store ptr %18, ptr %9, align 8
  %19 = load ptr, ptr %6, align 8
  %20 = load ptr, ptr %10, align 8
  %21 = call ptr @expert_add_info(ptr noundef %19, ptr noundef %20, ptr noundef @ei_ip_opt_deprecated)
  %22 = load ptr, ptr %9, align 8
  %23 = load i32, ptr @hf_ip_opt_sid, align 4
  %24 = load ptr, ptr %5, align 8
  %25 = call ptr @proto_tree_add_item(ptr noundef %22, i32 noundef %23, ptr noundef %24, i32 noundef 2, i32 noundef 2, i32 noundef 0)
  %26 = load ptr, ptr %5, align 8
  %27 = call i32 @tvb_captured_length(ptr noundef %26)
  call void @llvm.lifetime.end.p0(i64 8, ptr %10) #12
  call void @llvm.lifetime.end.p0(i64 8, ptr %9) #12
  ret i32 %27
}